target datalayout = "e-m:e-p270:32:32-p271:32:32-p272:64:64-i64:64-i128:128-f80:128-n8:16:32:64-S128"
target triple = "x86_64-pc-linux-gnu"

; Function Attrs: nounwind uwtable
define internal void @diag_downright_16x16_c(ptr noundef %0, i64 noundef %1, ptr noundef %2, ptr noundef %3) #1 {
  %5 = alloca ptr, align 8
  %6 = alloca i64, align 8
  %7 = alloca ptr, align 8
  %8 = alloca ptr, align 8
  %9 = alloca ptr, align 8
  %10 = alloca ptr, align 8
  %11 = alloca ptr, align 8
  %12 = alloca i32, align 4
  %13 = alloca i32, align 4
  %14 = alloca [31 x i16], align 16
  store ptr %0, ptr %5, align 8, !tbaa !10
  store i64 %1, ptr %6, align 8, !tbaa !12
  store ptr %2, ptr %7, align 8, !tbaa !10
  store ptr %3, ptr %8, align 8, !tbaa !10
  call void @llvm.lifetime.start.p0(i64 8, ptr %9) #9
  %15 = load ptr, ptr %5, align 8, !tbaa !10
  store ptr %15, ptr %9, align 8, !tbaa !14
  call void @llvm.lifetime.start.p0(i64 8, ptr %10) #9
  %16 = load ptr, ptr %8, align 8, !tbaa !10
  store ptr %16, ptr %10, align 8, !tbaa !14
  call void @llvm.lifetime.start.p0(i64 8, ptr %11) #9
  %17 = load ptr, ptr %7, align 8, !tbaa !10
  store ptr %17, ptr %11, align 8, !tbaa !14
  call void @llvm.lifetime.start.p0(i64 4, ptr %12) #9
  call void @llvm.lifetime.start.p0(i64 4, ptr %13) #9
  call void @llvm.lifetime.start.p0(i64 62, ptr %14) #9
  %18 = load i64, ptr %6, align 8, !tbaa !12
  %19 = udiv i64 %18, 2
  store i64 %19, ptr %6, align 8, !tbaa !12
  store i32 0, ptr %12, align 4, !tbaa !19
  br label %20

20:                                               ; preds = %83, %4
  %21 = load i32, ptr %12, align 4, !tbaa !19
  %22 = icmp slt i32 %21, 14
  br i1 %22, label %23, label %86

23:                                               ; preds = %20
  %24 = load ptr, ptr %11, align 8, !tbaa !14
  %25 = load i32, ptr %12, align 4, !tbaa !19
  %26 = sext i32 %25 to i64
  %27 = getelementptr inbounds i16, ptr %24, i64 %26
  %28 = load i16, ptr %27, align 2, !tbaa !17
  %29 = zext i16 %28 to i32
  %30 = load ptr, ptr %11, align 8, !tbaa !14
  %31 = load i32, ptr %12, align 4, !tbaa !19
  %32 = add nsw i32 %31, 1
  %33 = sext i32 %32 to i64
  %34 = getelementptr inbounds i16, ptr %30, i64 %33
  %35 = load i16, ptr %34, align 2, !tbaa !17
  %36 = zext i16 %35 to i32
  %37 = mul nsw i32 %36, 2
  %38 = add nsw i32 %29, %37
  %39 = load ptr, ptr %11, align 8, !tbaa !14
  %40 = load i32, ptr %12, align 4, !tbaa !19
  %41 = add nsw i32 %40, 2
  %42 = sext i32 %41 to i64
  %43 = getelementptr inbounds i16, ptr %39, i64 %42
  %44 = load i16, ptr %43, align 2, !tbaa !17
  %45 = zext i16 %44 to i32
  %46 = add nsw i32 %38, %45
  %47 = add nsw i32 %46, 2
  %48 = ashr i32 %47, 2
  %49 = trunc i32 %48 to i16
  %50 = load i32, ptr %12, align 4, !tbaa !19
  %51 = sext i32 %50 to i64
  %52 = getelementptr inbounds [31 x i16], ptr %14, i64 0, i64 %51
  store i16 %49, ptr %52, align 2, !tbaa !17
  %53 = load ptr, ptr %10, align 8, !tbaa !14
  %54 = load i32, ptr %12, align 4, !tbaa !19
  %55 = sext i32 %54 to i64
  %56 = getelementptr inbounds i16, ptr %53, i64 %55
  %57 = load i16, ptr %56, align 2, !tbaa !17
  %58 = zext i16 %57 to i32
  %59 = load ptr, ptr %10, align 8, !tbaa !14
  %60 = load i32, ptr %12, align 4, !tbaa !19
  %61 = add nsw i32 %60, 1
  %62 = sext i32 %61 to i64
  %63 = getelementptr inbounds i16, ptr %59, i64 %62
  %64 = load i16, ptr %63, align 2, !tbaa !17
  %65 = zext i16 %64 to i32
  %66 = mul nsw i32 %65, 2
  %67 = add nsw i32 %58, %66
  %68 = load ptr, ptr %10, align 8, !tbaa !14
  %69 = load i32, ptr %12, align 4, !tbaa !19
  %70 = add nsw i32 %69, 2
  %71 = sext i32 %70 to i64
  %72 = getelementptr inbounds i16, ptr %68, i64 %71
  %73 = load i16, ptr %72, align 2, !tbaa !17
  %74 = zext i16 %73 to i32
  %75 = add nsw i32 %67, %74
  %76 = add nsw i32 %75, 2
  %77 = ashr i32 %76, 2
  %78 = trunc i32 %77 to i16
  %79 = load i32, ptr %12, align 4, !tbaa !19
  %80 = add nsw i32 17, %79
  %81 = sext i32 %80 to i64
  %82 = getelementptr inbounds [31 x i16], ptr %14, i64 0, i64 %81
  store i16 %78, ptr %82, align 2, !tbaa !17
  br label %83

83:                                               ; preds = %23
  %84 = load i32, ptr %12, align 4, !tbaa !19
  %85 = add nsw i32 %84, 1
  store i32 %85, ptr %12, align 4, !tbaa !19
  br label %20, !llvm.loop !51

86:                                               ; preds = %20
  %87 = load ptr, ptr %11, align 8, !tbaa !14
  %88 = getelementptr inbounds i16, ptr %87, i64 14
  %89 = load i16, ptr %88, align 2, !tbaa !17
  %90 = zext i16 %89 to i32
  %91 = load ptr, ptr %11, align 8, !tbaa !14
  %92 = getelementptr inbounds i16, ptr %91, i64 15
  %93 = load i16, ptr %92, align 2, !tbaa !17
  %94 = zext i16 %93 to i32
  %95 = mul nsw i32 %94, 2
  %96 = add nsw i32 %90, %95
  %97 = load ptr, ptr %10, align 8, !tbaa !14
  %98 = getelementptr inbounds i16, ptr %97, i64 -1
  %99 = load i16, ptr %98, align 2, !tbaa !17
  %100 = zext i16 %99 to i32
  %101 = add nsw i32 %96, %100
  %102 = add nsw i32 %101, 2
  %103 = ashr i32 %102, 2
  %104 = trunc i32 %103 to i16
  %105 = getelementptr inbounds [31 x i16], ptr %14, i64 0, i64 14
  store i16 %104, ptr %105, align 4, !tbaa !17
  %106 = load ptr, ptr %11, align 8, !tbaa !14
  %107 = getelementptr inbounds i16, ptr %106, i64 15
  %108 = load i16, ptr %107, align 2, !tbaa !17
  %109 = zext i16 %108 to i32
  %110 = load ptr, ptr %10, align 8, !tbaa !14
  %111 = getelementptr inbounds i16, ptr %110, i64 -1
  %112 = load i16, ptr %111, align 2, !tbaa !17
  %113 = zext i16 %112 to i32
  %114 = mul nsw i32 %113, 2
  %115 = add nsw i32 %109, %114
  %116 = load ptr, ptr %10, align 8, !tbaa !14
  %117 = getelementptr inbounds i16, ptr %116, i64 0
  %118 = load i16, ptr %117, align 2, !tbaa !17
  %119 = zext i16 %118 to i32
  %120 = add nsw i32 %115, %119
  %121 = add nsw i32 %120, 2
  %122 = ashr i32 %121, 2
  %123 = trunc i32 %122 to i16
  %124 = getelementptr inbounds [31 x i16], ptr %14, i64 0, i64 15
  store i16 %123, ptr %124, align 2, !tbaa !17
  %125 = load ptr, ptr %10, align 8, !tbaa !14
  %126 = getelementptr inbounds i16, ptr %125, i64 -1
  %127 = load i16, ptr %126, align 2, !tbaa !17
  %128 = zext i16 %127 to i32
  %129 = load ptr, ptr %10, align 8, !tbaa !14
  %130 = getelementptr inbounds i16, ptr %129, i64 0
  %131 = load i16, ptr %130, align 2, !tbaa !17
  %132 = zext i16 %131 to i32
  %133 = mul nsw i32 %132, 2
  %134 = add nsw i32 %128, %133
  %135 = load ptr, ptr %10, align 8, !tbaa !14
  %136 = getelementptr inbounds i16, ptr %135, i64 1
  %137 = load i16, ptr %136, align 2, !tbaa !17
  %138 = zext i16 %137 to i32
  %139 = add nsw i32 %134, %138
  %140 = add nsw i32 %139, 2
  %141 = ashr i32 %140, 2
  %142 = trunc i32 %141 to i16
  %143 = getelementptr inbounds [31 x i16], ptr %14, i64 0, i64 16
  store i16 %142, ptr %143, align 16, !tbaa !17
  store i32 0, ptr %13, align 4, !tbaa !19
  br label %144

144:                                              ; preds = %161, %86
  %145 = load i32, ptr %13, align 4, !tbaa !19
  %146 = icmp slt i32 %145, 16
  br i1 %146, label %147, label %164

147:                                              ; preds = %144
  %148 = load ptr, ptr %9, align 8, !tbaa !14
  %149 = load i32, ptr %13, align 4, !tbaa !19
  %150 = sext i32 %149 to i64
  %151 = load i64, ptr %6, align 8, !tbaa !12
  %152 = mul nsw i64 %150, %151
  %153 = getelementptr inbounds i16, ptr %148, i64 %152
  %154 = getelementptr inbounds [31 x i16], ptr %14, i64 0, i64 0
  %155 = getelementptr inbounds i16, ptr %154, i64 16
  %156 = getelementptr inbounds i16, ptr %155, i64 -1
  %157 = load i32, ptr %13, align 4, !tbaa !19
  %158 = sext i32 %157 to i64
  %159 = sub i64 0, %158
  %160 = getelementptr inbounds i16, ptr %156, i64 %159
  call void @llvm.memcpy.p0.p0.i64(ptr align 2 %153, ptr align 2 %160, i64 32, i1 false)
  br label %161

161:                                              ; preds = %147
  %162 = load i32, ptr %13, align 4, !tbaa !19
  %163 = add nsw i32 %162, 1
  store i32 %163, ptr %13, align 4, !tbaa !19
  br label %144, !llvm.loop !52

164:                                              ; preds = %144
  call void @llvm.lifetime.end.p0(i64 62, ptr %14) #9
  call void @llvm.lifetime.end.p0(i64 4, ptr %13) #9
  call void @llvm.lifetime.end.p0(i64 4, ptr %12) #9
  call void @llvm.lifetime.end.p0(i64 8, ptr %11) #9
  call void @llvm.lifetime.end.p0(i64 8, ptr %10) #9
  call void @llvm.lifetime.end.p0(i64 8, ptr %9) #9
  ret void
}