; Function Attrs: nofree norecurse nosync nounwind memory(argmem: readwrite) uwtable
define internal void @diag_downright_16x16_c(ptr noundef writeonly captures(none) %0, i64 noundef %1, ptr noundef readonly captures(none) %2, ptr noundef readonly captures(none) %3) #2 {
  %5 = alloca [31 x i16], align 16
  call void @llvm.lifetime.start.p0(i64 62, ptr nonnull %5) #12
  %.pre = load i16, ptr %2, align 2, !tbaa !9
  %.phi.trans.insert = getelementptr inbounds nuw i8, ptr %2, i64 2
  %.pre42 = load i16, ptr %.phi.trans.insert, align 2, !tbaa !9
  %.pre43 = load i16, ptr %3, align 2, !tbaa !9
  %.phi.trans.insert44 = getelementptr inbounds nuw i8, ptr %3, i64 2
  %.pre45 = load i16, ptr %.phi.trans.insert44, align 2, !tbaa !9
  br label %6

6:                                                ; preds = %4, %6
  %7 = phi i16 [ %.pre45, %4 ], [ %28, %6 ]
  %8 = phi i16 [ %.pre43, %4 ], [ %7, %6 ]
  %9 = phi i16 [ %.pre42, %4 ], [ %16, %6 ]
  %10 = phi i16 [ %.pre, %4 ], [ %9, %6 ]
  %indvars.iv = phi i64 [ 0, %4 ], [ %indvars.iv.next, %6 ]
  %11 = zext i16 %10 to i32
  %indvars.iv.next = add nuw nsw i64 %indvars.iv, 1
  %12 = zext i16 %9 to i32
  %13 = shl nuw nsw i32 %12, 1
  %14 = add nuw nsw i64 %indvars.iv, 2
  %15 = getelementptr inbounds nuw i16, ptr %2, i64 %14
  %16 = load i16, ptr %15, align 2, !tbaa !9
  %17 = zext i16 %16 to i32
  %18 = add nuw nsw i32 %11, 2
  %19 = add nuw nsw i32 %18, %13
  %20 = add nuw nsw i32 %19, %17
  %21 = lshr i32 %20, 2
  %22 = trunc nuw i32 %21 to i16
  %23 = getelementptr inbounds nuw [31 x i16], ptr %5, i64 0, i64 %indvars.iv
  store i16 %22, ptr %23, align 2, !tbaa !9
  %24 = zext i16 %8 to i32
  %25 = zext i16 %7 to i32
  %26 = shl nuw nsw i32 %25, 1
  %27 = getelementptr inbounds nuw i16, ptr %3, i64 %14
  %28 = load i16, ptr %27, align 2, !tbaa !9
  %29 = zext i16 %28 to i32
  %30 = add nuw nsw i32 %24, 2
  %31 = add nuw nsw i32 %30, %26
  %32 = add nuw nsw i32 %31, %29
  %33 = lshr i32 %32, 2
  %34 = trunc nuw i32 %33 to i16
  %35 = add nuw nsw i64 %indvars.iv, 17
  %36 = getelementptr inbounds nuw [31 x i16], ptr %5, i64 0, i64 %35
  store i16 %34, ptr %36, align 2, !tbaa !9
  %exitcond.not = icmp eq i64 %indvars.iv.next, 14
  br i1 %exitcond.not, label %37, label %6, !llvm.loop !42

37:                                               ; preds = %6
  %38 = lshr i64 %1, 1
  %39 = getelementptr inbounds nuw i8, ptr %2, i64 28
  %40 = load i16, ptr %39, align 2, !tbaa !9
  %41 = zext i16 %40 to i32
  %42 = getelementptr inbounds nuw i8, ptr %2, i64 30
  %43 = load i16, ptr %42, align 2, !tbaa !9
  %44 = zext i16 %43 to i32
  %45 = shl nuw nsw i32 %44, 1
  %46 = getelementptr inbounds i8, ptr %3, i64 -2
  %47 = load i16, ptr %46, align 2, !tbaa !9
  %48 = zext i16 %47 to i32
  %49 = add nuw nsw i32 %48, 2
  %50 = add nuw nsw i32 %49, %41
  %51 = add nuw nsw i32 %50, %45
  %52 = lshr i32 %51, 2
  %53 = trunc nuw i32 %52 to i16
  %54 = getelementptr inbounds nuw i8, ptr %5, i64 28
  store i16 %53, ptr %54, align 4, !tbaa !9
  %55 = shl nuw nsw i32 %48, 1
  %56 = zext i16 %.pre43 to i32
  %57 = add nuw nsw i32 %44, 2
  %58 = add nuw nsw i32 %57, %55
  %59 = add nuw nsw i32 %58, %56
  %60 = lshr i32 %59, 2
  %61 = trunc nuw i32 %60 to i16
  %62 = getelementptr inbounds nuw i8, ptr %5, i64 30
  store i16 %61, ptr %62, align 2, !tbaa !9
  %63 = shl nuw nsw i32 %56, 1
  %64 = zext i16 %.pre45 to i32
  %65 = add nuw nsw i32 %49, %63
  %66 = add nuw nsw i32 %65, %64
  %67 = lshr i32 %66, 2
  %68 = trunc nuw i32 %67 to i16
  %69 = getelementptr inbounds nuw i8, ptr %5, i64 32
  store i16 %68, ptr %69, align 16, !tbaa !9
  br label %70

70:                                               ; preds = %37, %70
  %indvars.iv38 = phi i64 [ 0, %37 ], [ %indvars.iv.next39, %70 ]
  %71 = mul nuw nsw i64 %38, %indvars.iv38
  %72 = getelementptr inbounds nuw i16, ptr %0, i64 %71
  %73 = sub nsw i64 0, %indvars.iv38
  %74 = getelementptr inbounds i16, ptr %62, i64 %73
  call void @llvm.memcpy.p0.p0.i64(ptr noundef nonnull align 2 dereferenceable(32) %72, ptr noundef nonnull align 2 dereferenceable(32) %74, i64 32, i1 false)
  %indvars.iv.next39 = add nuw nsw i64 %indvars.iv38, 1
  %exitcond41.not = icmp eq i64 %indvars.iv.next39, 16
  br i1 %exitcond41.not, label %75, label %70, !llvm.loop !43

75:                                               ; preds = %70
  call void @llvm.lifetime.end.p0(i64 62, ptr nonnull %5) #12
  ret void
}